(lp0
(lp1
(S'Ph'
p2
S'NNP'
p3
S'B-DEGREE'
p4
tp5
a(S'D'
p6
g3
S'I-DEGREE'
p7
tp8
a(S'in'
p9
S'IN'
p10
S'O'
p11
tp12
a(S'Computer'
p13
S'NNP'
p14
S'B-MAJOR'
p15
tp16
a(S'Science'
p17
g3
S'I-MAJOR'
p18
tp19
a(S'Rutgers'
p20
g3
S'B-UNIVERSITY'
p21
tp22
a(S'University'
p23
S'NNP'
p24
S'I-UNIVERSITY'
p25
tp26
a(S'New'
p27
S'NNP'
p28
S'I-UNIVERSITY'
p29
tp30
a(S'Brunswick'
p31
g3
S'I-UNIVERSITY'
p32
tp33
a(S'New'
p34
g28
g11
tp35
a(S'Brunswick'
p36
g3
g11
tp37
a(S'NJ'
p38
g3
g11
tp39
a(S'2003'
p40
S'CD'
p41
S'B-TIMESTART'
p42
tp43
a(S'to'
p44
S'TO'
p45
g11
tp46
a(S'2010'
p47
g41
S'B-TIMEEND'
p48
tp49
aa(lp50
(S'Master'
p51
S'NN'
p52
S'B-DEGREE'
p53
tp54
a(S'of'
p55
S'IN'
p56
S'I-DEGREE'
p57
tp58
a(S'Science'
p59
S'NNP'
p60
S'I-DEGREE'
p61
tp62
a(S'in'
p63
S'IN'
p64
g11
tp65
a(S'Computer'
p66
S'NNP'
p67
S'B-MAJOR'
p68
tp69
a(S'Science'
p70
g60
S'I-MAJOR'
p71
tp72
a(S'California'
p73
S'NNP'
p74
S'B-UNIVERSITY'
p75
tp76
a(S'State'
p77
g60
S'I-UNIVERSITY'
p78
tp79
a(S'University'
p80
S'NNP'
p81
S'I-UNIVERSITY'
p82
tp83
a(S'Hayward'
p84
g60
g11
tp85
a(S'CA'
p86
g60
g11
tp87
a(S'2012'
p88
S'CD'
p89
S'B-TIMESTART'
p90
tp91
aa(lp92
(S'M'
p93
S'NNP'
p94
S'B-DEGREE'
p95
tp96
a(S'Tech'
p97
g94
S'I-DEGREE'
p98
tp99
a(S'in'
p100
S'IN'
p101
g11
tp102
a(S'Computer'
p103
S'NNP'
p104
S'B-MAJOR'
p105
tp106
a(S'Science'
p107
g94
S'I-MAJOR'
p108
tp109
a(S'and'
p110
S'CC'
p111
S'I-MAJOR'
p112
tp113
a(S'Engineering'
p114
g94
S'I-MAJOR'
p115
tp116
a(S'Indian'
p117
g94
S'B-UNIVERSITY'
p118
tp119
a(S'Institute'
p120
S'NNP'
p121
S'I-UNIVERSITY'
p122
tp123
a(S'of'
p124
S'IN'
p125
S'I-UNIVERSITY'
p126
tp127
a(S'Technology'
p128
g94
S'I-UNIVERSITY'
p129
tp130
a(S'2010'
p131
S'CD'
p132
S'B-TIMESTART'
p133
tp134
aa(lp135
(S'B'
p136
S'NNP'
p137
S'B-DEGREE'
p138
tp139
a(S'Tech'
p140
g137
S'I-DEGREE'
p141
tp142
a(S'in'
p143
S'IN'
p144
g11
tp145
a(S'Computer'
p146
S'NNP'
p147
S'B-MAJOR'
p148
tp149
a(S'Science'
p150
g137
S'I-MAJOR'
p151
tp152
a(S'and'
p153
S'CC'
p154
S'I-MAJOR'
p155
tp156
a(S'Engineering'
p157
g137
S'I-MAJOR'
p158
tp159
a(S'Calicut'
p160
g137
S'B-UNIVERSITY'
p161
tp162
a(S'University'
p163
S'NNP'
p164
S'I-UNIVERSITY'
p165
tp166
a(S'Calicut'
p167
g137
S'I-UNIVERSITY'
p168
tp169
a(S'Kerala'
p170
g137
g11
tp171
aa(lp172
(S'Master'
p173
S'NN'
p174
S'B-DEGREE'
p175
tp176
a(S'of'
p177
S'IN'
p178
S'I-DEGREE'
p179
tp180
a(S'Science'
p181
S'NNP'
p182
S'I-DEGREE'
p183
tp184
a(S'in'
p185
S'IN'
p186
g11
tp187
a(S'Software'
p188
g182
S'B-MAJOR'
p189
tp190
a(S'Engineering'
p191
g182
S'I-MAJOR'
p192
tp193
a(S'SAN'
p194
g182
S'B-UNIVERSITY'
p195
tp196
a(S'JOSE'
p197
g182
S'I-UNIVERSITY'
p198
tp199
a(S'STATE'
p200
g182
S'I-UNIVERSITY'
p201
tp202
a(S'UNIVERSITY'
p203
g182
S'I-UNIVERSITY'
p204
tp205
a(S'San'
p206
S'NNP'
p207
g11
tp208
a(S'Jose'
p209
g182
g11
tp210
a(S'CA'
p211
g182
g11
tp212
a(S'August'
p213
S'NNP'
p214
S'B-TIMESTART'
p215
tp216
a(S'2017'
p217
S'CD'
p218
S'I-TIMESTART'
p219
tp220
a(S'to'
p221
S'TO'
p222
g11
tp223
a(S'August'
p224
g214
S'B-TIMEEND'
p225
tp226
a(S'2019'
p227
g218
S'I-TIMEEND'
p228
tp229
aa(lp230
(S'Bachelor'
p231
S'NNP'
p232
S'B-DEGREE'
p233
tp234
a(S'of'
p235
S'IN'
p236
S'I-DEGREE'
p237
tp238
a(S'Engineering'
p239
g232
S'I-DEGREE'
p240
tp241
a(S'in'
p242
S'IN'
p243
g11
tp244
a(S'Electronics'
p245
g232
S'B-MAJOR'
p246
tp247
a(S'Engineering'
p248
g232
S'I-MAJOR'
p249
tp250
a(S'UNIVERSITY'
p251
g232
S'B-UNIVERSITY'
p252
tp253
a(S'OF'
p254
g232
S'I-UNIVERSITY'
p255
tp256
a(S'PUNE'
p257
g232
S'I-UNIVERSITY'
p258
tp259
a(S'Pune'
p260
g232
g11
tp261
a(S'Maharashtra'
p262
g232
g11
tp263
a(S'July'
p264
S'NNP'
p265
S'B-TIMESTART'
p266
tp267
a(S'2008'
p268
S'CD'
p269
S'I-TIMESTART'
p270
tp271
a(S'to'
p272
S'TO'
p273
g11
tp274
a(S'July'
p275
g265
S'B-TIMEEND'
p276
tp277
a(S'2012'
p278
g269
S'I-TIMEEND'
p279
tp280
aa(lp281
(S'MS'
p282
S'NNP'
p283
S'B-DEGREE'
p284
tp285
a(S'in'
p286
S'IN'
p287
g11
tp288
a(S'Computer'
p289
S'NNP'
p290
S'B-MAJOR'
p291
tp292
a(S'Science'
p293
g283
S'I-MAJOR'
p294
tp295
a(S'San'
p296
S'NNP'
p297
S'B-UNIVERSITY'
p298
tp299
a(S'Jose'
p300
g283
S'I-UNIVERSITY'
p301
tp302
a(S'State'
p303
g283
S'I-UNIVERSITY'
p304
tp305
a(S'University'
p306
S'NNP'
p307
S'I-UNIVERSITY'
p308
tp309
a(S'San'
p310
g297
g11
tp311
a(S'Jose'
p312
g283
g11
tp313
a(S'CA'
p314
g283
g11
tp315
a(S'August'
p316
S'NNP'
p317
S'B-TIMESTART'
p318
tp319
a(S'2016'
p320
S'CD'
p321
S'I-TIMESTART'
p322
tp323
a(S'to'
p324
S'TO'
p325
g11
tp326
a(S'May'
p327
S'NNP'
p328
S'B-TIMEEND'
p329
tp330
a(S'2018'
p331
g321
S'I-TIMEEND'
p332
tp333
aa(lp334
(S'Bachelor'
p335
S'NNP'
p336
S'B-DEGREE'
p337
tp338
a(S's'
p339
S'NN'
p340
S'I-DEGREE'
p341
tp342
a(S'of'
p343
S'IN'
p344
S'I-DEGREE'
p345
tp346
a(S'Engineering'
p347
g336
S'I-DEGREE'
p348
tp349
a(S'in'
p350
S'IN'
p351
g11
tp352
a(S'Computer'
p353
S'NNP'
p354
S'B-MAJOR'
p355
tp356
a(S'Engineering'
p357
g336
S'I-MAJOR'
p358
tp359
a(S'University'
p360
S'NNP'
p361
S'B-UNIVERSITY'
p362
tp363
a(S'of'
p364
g344
S'I-UNIVERSITY'
p365
tp366
a(S'Mumbai'
p367
g336
S'I-UNIVERSITY'
p368
tp369
a(S'Mumbai'
p370
g336
g11
tp371
a(S'Maharashtra'
p372
g336
g11
tp373
a(S'2009'
p374
S'CD'
p375
S'B-TIMESTART'
p376
tp377
a(S'to'
p378
S'TO'
p379
g11
tp380
a(S'2013'
p381
g375
S'B-TIMEEND'
p382
tp383
aa(lp384
(S'Computer'
p385
S'NNP'
p386
S'B-DEGREE'
p387
tp388
a(S'Software'
p389
S'NNP'
p390
S'I-DEGREE'
p391
tp392
a(S'Engineering'
p393
g390
S'I-DEGREE'
p394
tp395
a(S'in'
p396
S'IN'
p397
g11
tp398
a(S'San'
p399
S'NNP'
p400
S'B-UNIVERSITY'
p401
tp402
a(S'Jose'
p403
g390
S'I-UNIVERSITY'
p404
tp405
a(S'State'
p406
g390
S'I-UNIVERSITY'
p407
tp408
a(S'University'
p409
S'NNP'
p410
S'I-UNIVERSITY'
p411
tp412
a(S'August'
p413
S'NNP'
p414
S'B-TIMESTART'
p415
tp416
a(S'2017'
p417
S'CD'
p418
S'I-TIMESTART'
p419
tp420
a(S'to'
p421
S'TO'
p422
g11
tp423
a(S'Present'
p424
S'VB'
p425
S'B-TIMEEND'
p426
tp427
aa(lp428
(S'Undergrad'
p429
S'NNP'
p430
S'B-DEGREE'
p431
tp432
a(S'ECE'
p433
g430
S'I-DEGREE'
p434
tp435
a(S'in'
p436
S'IN'
p437
g11
tp438
a(S'GITAM'
p439
g430
S'B-UNIVERSITY'
p440
tp441
a(S'University'
p442
S'NNP'
p443
S'I-UNIVERSITY'
p444
tp445
a(S'Sri'
p446
g430
g11
tp447
a(S'Chaitanya'
p448
g430
g11
tp449
a(S'College'
p450
g430
g11
tp451
aa(lp452
(g136
S'NNP'
p453
S'B-DEGREE'
p454
tp455
a(S'E'
p456
g453
S'I-DEGREE'
p457
tp458
a(S'in'
p459
S'IN'
p460
g11
tp461
a(S'Instrumentation'
p462
g453
S'B-MAJOR'
p463
tp464
a(S'and'
p465
S'CC'
p466
S'I-MAJOR'
p467
tp468
a(S'Control'
p469
g453
S'I-MAJOR'
p470
tp471
a(S'in'
p472
g460
g11
tp473
a(S'Instrumentation'
p474
g453
g11
tp475
a(S'and'
p476
g466
g11
tp477
a(S'Control'
p478
g453
g11
tp479
a(S'University'
p480
S'NNP'
p481
S'B-UNIVERSITY'
p482
tp483
a(S'of'
p484
S'IN'
p485
S'I-UNIVERSITY'
p486
tp487
a(S'Pune'
p488
g453
S'I-UNIVERSITY'
p489
tp490
a(S'June'
p491
S'NNP'
p492
S'B-TIMESTART'
p493
tp494
a(S'2007'
p495
S'CD'
p496
S'I-TIMESTART'
p497
tp498
a(S'to'
p499
S'TO'
p500
S'B-TIMEEND'
p501
tp502
a(S'May'
p503
S'NNP'
p504
S'I-TIMEEND'
p505
tp506
a(S'2011'
p507
g496
S'I-TIMEEND'
p508
tp509
aa(lp510
(g93
S'NNP'
p511
S'B-DEGREE'
p512
tp513
a(S'S'
p514
g511
S'I-DEGREE'
p515
tp516
a(S'in'
p517
S'IN'
p518
g11
tp519
a(S'Software'
p520
g511
S'B-MAJOR'
p521
tp522
a(S'Engineering'
p523
g511
S'I-MAJOR'
p524
tp525
a(S'San'
p526
S'NNP'
p527
S'B-UNIVERSITY'
p528
tp529
a(S'Jose'
p530
g511
S'I-UNIVERSITY'
p531
tp532
a(S'State'
p533
g511
S'I-UNIVERSITY'
p534
tp535
a(S'University'
p536
S'NNP'
p537
S'I-UNIVERSITY'
p538
tp539
a(S'August'
p540
S'NNP'
p541
S'B-TIMESTART'
p542
tp543
a(S'2017'
p544
S'CD'
p545
S'I-TIMESTART'
p546
tp547
a(S'to'
p548
S'TO'
p549
g11
tp550
a(S'Present'
p551
S'VB'
p552
S'B-TIMEEND'
p553
tp554
aa(lp555
(g136
S'NNP'
p556
S'B-DEGREE'
p557
tp558
a(g456
g556
S'I-DEGREE'
p559
tp560
a(S'in'
p561
S'IN'
p562
g11
tp563
a(S'Computer'
p564
S'NNP'
p565
S'B-MAJOR'
p566
tp567
a(S'Engineering'
p568
g556
S'I-MAJOR'
p569
tp570
a(S'Gujarat'
p571
g556
S'B-UNIVERSITY'
p572
tp573
a(S'Technological'
p574
g556
S'I-UNIVERSITY'
p575
tp576
a(S'University'
p577
S'NNP'
p578
S'I-UNIVERSITY'
p579
tp580
a(S'July'
p581
S'NNP'
p582
S'B-TIMESTART'
p583
tp584
a(S'2011'
p585
S'CD'
p586
S'I-TIMESTART'
p587
tp588
a(S'to'
p589
S'TO'
p590
g11
tp591
a(S'May'
p592
S'NNP'
p593
S'B-TIMEEND'
p594
tp595
a(S'2015'
p596
g586
S'I-TIMEEND'
p597
tp598
aa(lp599
(S'MS'
p600
S'NNP'
p601
S'B-DEGREE'
p602
tp603
a(S'in'
p604
S'IN'
p605
g11
tp606
a(S'Computer'
p607
S'NNP'
p608
S'B-MAJOR'
p609
tp610
a(S'Science'
p611
g601
S'I-MAJOR'
p612
tp613
a(S'and'
p614
S'CC'
p615
S'I-MAJOR'
p616
tp617
a(S'Engineering'
p618
g601
S'I-MAJOR'
p619
tp620
a(S'Santa'
p621
S'NNP'
p622
S'B-UNIVERSITY'
p623
tp624
a(S'Clara'
p625
g601
S'I-UNIVERSITY'
p626
tp627
a(S'University'
p628
S'NNP'
p629
S'I-UNIVERSITY'
p630
tp631
a(S'September'
p632
S'NNP'
p633
S'B-TIMESTART'
p634
tp635
a(S'2015'
p636
S'CD'
p637
S'I-TIMESTART'
p638
tp639
a(S'to'
p640
S'TO'
p641
g11
tp642
a(S'June'
p643
S'NNP'
p644
S'B-TIMEEND'
p645
tp646
a(S'2017'
p647
g637
S'I-TIMEEND'
p648
tp649
aa(lp650
(S'BE'
p651
S'NN'
p652
S'B-DEGREE'
p653
tp654
a(S'in'
p655
S'IN'
p656
g11
tp657
a(S'Computer'
p658
S'NNP'
p659
S'B-MAJOR'
p660
tp661
a(S'Science'
p662
S'NNP'
p663
S'I-MAJOR'
p664
tp665
a(S'and'
p666
S'CC'
p667
S'I-MAJOR'
p668
tp669
a(S'Engineering'
p670
g663
S'I-MAJOR'
p671
tp672
a(S'Anna'
p673
g663
S'B-UNIVERSITY'
p674
tp675
a(S'University'
p676
S'NNP'
p677
S'I-UNIVERSITY'
p678
tp679
a(S'Chennai'
p680
g663
g11
tp681
a(S'Tamil'
p682
g663
g11
tp683
a(S'Nadu'
p684
g663
g11
tp685
a(S'September'
p686
S'NNP'
p687
S'B-TIMESTART'
p688
tp689
a(S'2008'
p690
S'CD'
p691
S'I-TIMESTART'
p692
tp693
a(S'to'
p694
S'TO'
p695
S'B-TIMEEND'
p696
tp697
a(S'April'
p698
S'NNP'
p699
S'I-TIMEEND'
p700
tp701
a(S'20121'
p702
g691
S'I-TIMEEND'
p703
tp704
aa(lp705
(g136
S'NNP'
p706
S'B-DEGREE'
p707
tp708
a(g514
g706
S'I-DEGREE'
p709
tp710
a(S'in'
p711
S'IN'
p712
g11
tp713
a(S'Computer'
p714
S'NNP'
p715
S'B-MAJOR'
p716
tp717
a(S'Science'
p718
g706
S'I-MAJOR'
p719
tp720
a(S'University'
p721
S'NNP'
p722
S'B-UNIVERSITY'
p723
tp724
a(S'of'
p725
S'IN'
p726
S'I-UNIVERSITY'
p727
tp728
a(S'California'
p729
S'NNP'
p730
S'I-UNIVERSITY'
p731
tp732
a(S'San'
p733
S'NNP'
p734
S'I-UNIVERSITY'
p735
tp736
a(S'Diego'
p737
g706
S'I-UNIVERSITY'
p738
tp739
a(S'San'
p740
g734
g11
tp741
a(S'Diego'
p742
g706
g11
tp743
a(S'CA'
p744
g706
g11
tp745
a(S'September'
p746
S'NNP'
p747
S'B-TIMESTART'
p748
tp749
a(S'2012'
p750
S'CD'
p751
S'I-TIMESTART'
p752
tp753
a(S'to'
p754
S'TO'
p755
g11
tp756
a(S'March'
p757
S'NNP'
p758
S'B-TIMEEND'
p759
tp760
a(S'2016'
p761
g751
S'I-TIMEEND'
p762
tp763
aa(lp764
(S'Computer'
p765
S'NNP'
p766
S'B-DEGREE'
p767
tp768
a(S'Engineering'
p769
S'NNP'
p770
S'I-DEGREE'
p771
tp772
a(S'Florida'
p773
S'NNP'
p774
S'B-UNIVERSITY'
p775
tp776
a(S'International'
p777
S'NNP'
p778
S'I-UNIVERSITY'
p779
tp780
a(S'University'
p781
S'NNP'
p782
S'I-UNIVERSITY'
p783
tp784
a(S'2015'
p785
S'CD'
p786
S'B-TIMESTART'
p787
tp788
a(S'to'
p789
S'TO'
p790
g11
tp791
a(S'2017'
p792
g786
S'B-TIMEEND'
p793
tp794
aa(lp795
(S'BS'
p796
S'NNP'
p797
S'B-DEGREE'
p798
tp799
a(S'in'
p800
S'IN'
p801
g11
tp802
a(S'Computer'
p803
S'NNP'
p804
S'B-MAJOR'
p805
tp806
a(S'Science'
p807
g797
S'I-MAJOR'
p808
tp809
a(S'Hunan'
p810
g797
S'B-UNIVERSITY'
p811
tp812
a(S'University'
p813
S'NNP'
p814
S'I-UNIVERSITY'
p815
tp816
a(S'of'
p817
S'IN'
p818
S'I-UNIVERSITY'
p819
tp820
a(S'Commerce'
p821
S'NNP'
p822
S'I-UNIVERSITY'
p823
tp824
a(S'2009'
p825
S'CD'
p826
S'B-TIMESTART'
p827
tp828
a(S'to'
p829
S'TO'
p830
g11
tp831
a(S'2014'
p832
g826
S'B-TIMEEND'
p833
tp834
aa(lp835
(g93
S'NNP'
p836
S'B-DEGREE'
p837
tp838
a(g514
g836
S'I-DEGREE'
p839
tp840
a(S'in'
p841
S'IN'
p842
g11
tp843
a(S'Technology'
p844
g836
S'B-MAJOR'
p845
tp846
a(S'Management'
p847
g836
S'I-MAJOR'
p848
tp849
a(S'in'
p850
g842
g11
tp851
a(S'Technology'
p852
g836
S'B-MAJOR'
p853
tp854
a(S'Management'
p855
g836
S'I-MAJOR'
p856
tp857
a(S'University'
p858
S'NNP'
p859
S'B-UNIVERSITY'
p860
tp861
a(S'of'
p862
S'IN'
p863
S'I-UNIVERSITY'
p864
tp865
a(S'Illinois'
p866
g836
S'I-UNIVERSITY'
p867
tp868
a(S'Urbana'
p869
g836
S'I-UNIVERSITY'
p870
tp871
a(S'Champaign'
p872
g836
S'I-UNIVERSITY'
p873
tp874
a(S'IL'
p875
g836
g11
tp876
aa(lp877
(g136
S'NNP'
p878
S'B-DEGREE'
p879
tp880
a(g456
g878
S'I-DEGREE'
p881
tp882
a(S'in'
p883
S'IN'
p884
g11
tp885
a(S'Computer'
p886
S'NNP'
p887
S'B-MAJOR'
p888
tp889
a(S'Science'
p890
g878
S'I-MAJOR'
p891
tp892
a(S'and'
p893
S'CC'
p894
S'I-MAJOR'
p895
tp896
a(S'Engineering'
p897
g878
S'I-MAJOR'
p898
tp899
a(S'in'
p900
g884
g11
tp901
a(S'Computer'
p902
g887
g11
tp903
a(S'Science'
p904
g878
g11
tp905
a(S'and'
p906
g894
g11
tp907
a(S'Engineering'
p908
g878
g11
tp909
a(S'Visveswaraiah'
p910
g878
S'B-UNIVERSITY'
p911
tp912
a(S'Technological'
p913
g878
S'I-UNIVERSITY'
p914
tp915
a(S'University'
p916
S'NNP'
p917
S'I-UNIVERSITY'
p918
tp919
a(S'Bengaluru'
p920
g878
g11
tp921
a(S'Karnataka'
p922
g878
g11
tp923
aa(lp924
(S'MS'
p925
S'NNP'
p926
S'B-DEGREE'
p927
tp928
a(S'in'
p929
S'IN'
p930
g11
tp931
a(S'Computer'
p932
S'NNP'
p933
S'B-MAJOR'
p934
tp935
a(S'Science'
p936
g926
S'I-MAJOR'
p937
tp938
a(S'University'
p939
S'NNP'
p940
S'B-UNIVERSITY'
p941
tp942
a(S'of'
p943
S'IN'
p944
S'I-UNIVERSITY'
p945
tp946
a(S'Southern'
p947
g926
S'I-UNIVERSITY'
p948
tp949
a(S'California'
p950
S'NNP'
p951
S'I-UNIVERSITY'
p952
tp953
a(S'Los'
p954
S'NNP'
p955
g11
tp956
a(S'Angeles'
p957
S'NNP'
p958
g11
tp959
a(S'CA'
p960
g926
g11
tp961
a(S'January'
p962
S'NNP'
p963
S'B-TIMESTART'
p964
tp965
a(S'2016'
p966
S'CD'
p967
S'I-TIMESTART'
p968
tp969
a(S'to'
p970
S'TO'
p971
g11
tp972
a(S'December'
p973
S'NNP'
p974
S'B-TIMEEND'
p975
tp976
a(S'2017'
p977
g967
S'I-TIMEEND'
p978
tp979
aa(lp980
(S'Master'
p981
S'NN'
p982
S'B-DEGREE'
p983
tp984
a(S'of'
p985
S'IN'
p986
S'I-DEGREE'
p987
tp988
a(S'Science'
p989
S'NNP'
p990
S'I-DEGREE'
p991
tp992
a(S'in'
p993
S'IN'
p994
g11
tp995
a(S'Computer'
p996
S'NNP'
p997
S'B-MAJOR'
p998
tp999
a(S'Science'
p1000
g990
S'I-MAJOR'
p1001
tp1002
a(S'in'
p1003
g994
g11
tp1004
a(S'Computer'
p1005
g997
g11
tp1006
a(S'Science'
p1007
g990
g11
tp1008
a(S'Maharaja'
p1009
g990
S'B-UNIVERSITY'
p1010
tp1011
a(S'College'
p1012
g990
S'I-UNIVERSITY'
p1013
tp1014
a(S'for'
p1015
S'IN'
p1016
S'I-UNIVERSITY'
p1017
tp1018
a(S'Women'
p1019
g990
S'I-UNIVERSITY'
p1020
tp1021
a(S'Perundurai'
p1022
g990
g11
tp1023
a(S'Tamil'
p1024
g990
g11
tp1025
a(S'Nadu'
p1026
g990
g11
tp1027
a(S'May'
p1028
S'NNP'
p1029
S'B-TIMESTART'
p1030
tp1031
a(S'2007'
p1032
S'CD'
p1033
S'I-TIMESTART'
p1034
tp1035
aa(lp1036
(S'Bachelor'
p1037
S'NN'
p1038
S'B-DEGREE'
p1039
tp1040
a(S'of'
p1041
S'IN'
p1042
S'I-DEGREE'
p1043
tp1044
a(S'Science'
p1045
S'NNP'
p1046
S'I-DEGREE'
p1047
tp1048
a(S'in'
p1049
S'IN'
p1050
g11
tp1051
a(S'Computer'
p1052
S'NNP'
p1053
S'B-MAJOR'
p1054
tp1055
a(S'Science'
p1056
g1046
S'I-MAJOR'
p1057
tp1058
a(S'in'
p1059
g1050
g11
tp1060
a(S'Computer'
p1061
g1053
g11
tp1062
a(S'Science'
p1063
g1046
g11
tp1064
a(S'Vellalar'
p1065
g1046
S'B-UNIVERSITY'
p1066
tp1067
a(S'College'
p1068
g1046
S'I-UNIVERSITY'
p1069
tp1070
a(S'for'
p1071
S'IN'
p1072
S'I-UNIVERSITY'
p1073
tp1074
a(S'Women'
p1075
g1046
S'I-UNIVERSITY'
p1076
tp1077
a(S'Erode'
p1078
g1046
g11
tp1079
a(S'Tamil'
p1080
g1046
g11
tp1081
a(S'Nadu'
p1082
g1046
g11
tp1083
a(S'January'
p1084
S'NNP'
p1085
S'B-TIMESTART'
p1086
tp1087
a(S'2005'
p1088
S'CD'
p1089
S'I-TIMESTART'
p1090
tp1091
aa(lp1092
(S'Master'
p1093
S'NN'
p1094
S'B-DEGREE'
p1095
tp1096
a(S'of'
p1097
S'IN'
p1098
S'I-DEGREE'
p1099
tp1100
a(S'Science'
p1101
S'NNP'
p1102
S'I-DEGREE'
p1103
tp1104
a(S'in'
p1105
S'IN'
p1106
g11
tp1107
a(S'Computer'
p1108
S'NNP'
p1109
S'B-MAJOR'
p1110
tp1111
a(S'Science'
p1112
g1102
S'I-MAJOR'
p1113
tp1114
a(S'San'
p1115
S'NNP'
p1116
S'B-UNIVERSITY'
p1117
tp1118
a(S'Jose'
p1119
g1102
S'I-UNIVERSITY'
p1120
tp1121
a(S'State'
p1122
g1102
S'I-UNIVERSITY'
p1123
tp1124
a(S'University'
p1125
S'NNP'
p1126
S'I-UNIVERSITY'
p1127
tp1128
a(S'San'
p1129
g1116
g11
tp1130
a(S'Jose'
p1131
g1102
g11
tp1132
a(S'CA'
p1133
g1102
g11
tp1134
a(S'December'
p1135
S'NNP'
p1136
S'B-TIMESTART'
p1137
tp1138
a(S'2017'
p1139
S'CD'
p1140
S'I-TIMESTART'
p1141
tp1142
aa(lp1143
(S'Bachelor'
p1144
S'NNP'
p1145
S'B-DEGREE'
p1146
tp1147
a(S'of'
p1148
S'IN'
p1149
S'I-DEGREE'
p1150
tp1151
a(S'Technology'
p1152
g1145
S'I-DEGREE'
p1153
tp1154
a(S'in'
p1155
S'IN'
p1156
g11
tp1157
a(S'Computer'
p1158
S'NNP'
p1159
S'B-MAJOR'
p1160
tp1161
a(S'Science'
p1162
g1145
S'I-MAJOR'
p1163
tp1164
a(S'and'
p1165
S'CC'
p1166
S'I-MAJOR'
p1167
tp1168
a(S'Engineering'
p1169
g1145
S'I-MAJOR'
p1170
tp1171
a(S'Mahatma'
p1172
g1145
S'B-UNIVERSITY'
p1173
tp1174
a(S'Gandhi'
p1175
g1145
S'I-UNIVERSITY'
p1176
tp1177
a(S'University'
p1178
S'NNP'
p1179
S'I-UNIVERSITY'
p1180
tp1181
a(S'May'
p1182
S'NNP'
p1183
S'B-TIMEEND'
p1184
tp1185
a(S'2011'
p1186
S'CD'
p1187
S'I-TIMEEND'
p1188
tp1189
aa(lp1190
(S'Master'
p1191
S'NN'
p1192
S'B-DEGREE'
p1193
tp1194
a(S'of'
p1195
S'IN'
p1196
S'I-DEGREE'
p1197
tp1198
a(S'Science'
p1199
S'NNP'
p1200
S'I-DEGREE'
p1201
tp1202
a(S'in'
p1203
S'IN'
p1204
g11
tp1205
a(S'Financial'
p1206
g1200
S'B-MAJOR'
p1207
tp1208
a(S'Engineering'
p1209
g1200
S'I-MAJOR'
p1210
tp1211
a(S'in'
p1212
g1204
g11
tp1213
a(S'Financial'
p1214
g1200
g11
tp1215
a(S'Engineering'
p1216
g1200
g11
tp1217
a(S'University'
p1218
S'NNP'
p1219
S'B-UNIVERSITY'
p1220
tp1221
a(S'of'
p1222
g1196
S'I-UNIVERSITY'
p1223
tp1224
a(S'Michigan'
p1225
g1200
S'I-UNIVERSITY'
p1226
tp1227
a(S'Ann'
p1228
g1200
g11
tp1229
a(S'Arbor'
p1230
g1200
g11
tp1231
a(S'MI'
p1232
g1200
g11
tp1233
a(S'December'
p1234
S'NNP'
p1235
S'B-TIMEEND'
p1236
tp1237
a(S'2012'
p1238
S'CD'
p1239
S'I-TIMEEND'
p1240
tp1241
aa(lp1242
(S'BS'
p1243
S'NNP'
p1244
S'B-DEGREE'
p1245
tp1246
a(S'in'
p1247
S'IN'
p1248
g11
tp1249
a(S'Information'
p1250
g1244
S'B-MAJOR'
p1251
tp1252
a(S'and'
p1253
S'CC'
p1254
S'I-MAJOR'
p1255
tp1256
a(S'Computing'
p1257
g1244
S'I-MAJOR'
p1258
tp1259
a(S'Science'
p1260
g1244
S'I-MAJOR'
p1261
tp1262
a(S'in'
p1263
g1248
g11
tp1264
a(S'National'
p1265
S'NNP'
p1266
S'B-UNIVERSITY'
p1267
tp1268
a(S'Beijing'
p1269
g1244
S'I-UNIVERSITY'
p1270
tp1271
a(S'Jiaotong'
p1272
g1244
S'I-UNIVERSITY'
p1273
tp1274
a(S'University'
p1275
S'NNP'
p1276
S'I-UNIVERSITY'
p1277
tp1278
a(S'Beijing'
p1279
g1244
g11
tp1280
a(S'CN'
p1281
g1244
g11
tp1282
a(S'June'
p1283
S'NNP'
p1284
S'B-TIMEEND'
p1285
tp1286
a(S'2011'
p1287
S'CD'
p1288
S'I-TIMEEND'
p1289
tp1290
aa(lp1291
(S'Master'
p1292
S'NN'
p1293
S'B-DEGREE'
p1294
tp1295
a(S'of'
p1296
S'IN'
p1297
S'I-DEGREE'
p1298
tp1299
a(S'Science'
p1300
S'NNP'
p1301
S'I-DEGREE'
p1302
tp1303
a(S'in'
p1304
S'IN'
p1305
g11
tp1306
a(S'Software'
p1307
g1301
S'B-MAJOR'
p1308
tp1309
a(S'Engineering'
p1310
g1301
S'I-MAJOR'
p1311
tp1312
a(S'International'
p1313
S'NNP'
p1314
S'B-UNIVERSITY'
p1315
tp1316
a(S'Technological'
p1317
g1301
S'I-UNIVERSITY'
p1318
tp1319
a(S'University'
p1320
S'NNP'
p1321
S'I-UNIVERSITY'
p1322
tp1323
a(S'San'
p1324
S'NNP'
p1325
g11
tp1326
a(S'Jose'
p1327
g1301
g11
tp1328
a(S'CA'
p1329
g1301
g11
tp1330
a(S'May'
p1331
S'NNP'
p1332
S'B-TIMESTART'
p1333
tp1334
a(S'2015'
p1335
S'CD'
p1336
S'I-TIMESTART'
p1337
tp1338
a(S'to'
p1339
S'TO'
p1340
g11
tp1341
a(S'December'
p1342
S'NNP'
p1343
S'B-TIMEEND'
p1344
tp1345
a(S'2016'
p1346
g1336
S'I-TIMEEND'
p1347
tp1348
aa(lp1349
(S'Bachelors'
p1350
S'NNS'
p1351
S'B-DEGREE'
p1352
tp1353
a(S'of'
p1354
S'IN'
p1355
S'I-DEGREE'
p1356
tp1357
a(S'Technology'
p1358
S'NNP'
p1359
S'I-DEGREE'
p1360
tp1361
a(S'in'
p1362
S'IN'
p1363
g11
tp1364
a(S'Information'
p1365
g1359
S'B-MAJOR'
p1366
tp1367
a(S'Technology'
p1368
g1359
S'I-MAJOR'
p1369
tp1370
a(S'Harcourt'
p1371
g1359
S'B-UNIVERSITY'
p1372
tp1373
a(S'Butler'
p1374
g1359
S'I-UNIVERSITY'
p1375
tp1376
a(S'Technological'
p1377
g1359
S'I-UNIVERSITY'
p1378
tp1379
a(S'Institute'
p1380
S'NNP'
p1381
S'I-UNIVERSITY'
p1382
tp1383
a(S'Kanpur'
p1384
g1359
g11
tp1385
a(S'Uttar'
p1386
g1359
g11
tp1387
a(S'Pradesh'
p1388
g1359
g11
tp1389
a(S'August'
p1390
S'NNP'
p1391
S'B-TIMESTART'
p1392
tp1393
a(S'2007'
p1394
S'CD'
p1395
S'I-TIMESTART'
p1396
tp1397
a(S'to'
p1398
S'TO'
p1399
g11
tp1400
a(S'June'
p1401
S'NNP'
p1402
S'B-TIMEEND'
p1403
tp1404
a(S'2011'
p1405
g1395
S'I-TIMEEND'
p1406
tp1407
aa(lp1408
(S'Master'
p1409
S'NN'
p1410
S'B-DEGREE'
p1411
tp1412
a(S'of'
p1413
S'IN'
p1414
S'I-DEGREE'
p1415
tp1416
a(S'Science'
p1417
S'NNP'
p1418
S'I-DEGREE'
p1419
tp1420
a(S'in'
p1421
S'IN'
p1422
g11
tp1423
a(S'Computer'
p1424
S'NNP'
p1425
S'B-MAJOR'
p1426
tp1427
a(S'Software'
p1428
g1418
S'I-MAJOR'
p1429
tp1430
a(S'Engineering'
p1431
g1418
S'I-MAJOR'
p1432
tp1433
a(S'San'
p1434
S'NNP'
p1435
S'B-UNIVERSITY'
p1436
tp1437
a(S'Jose'
p1438
g1418
S'I-UNIVERSITY'
p1439
tp1440
a(S'State'
p1441
g1418
S'I-UNIVERSITY'
p1442
tp1443
a(S'University'
p1444
S'NNP'
p1445
S'I-UNIVERSITY'
p1446
tp1447
a(S'San'
p1448
g1435
g11
tp1449
a(S'Jose'
p1450
g1418
g11
tp1451
a(S'CA'
p1452
g1418
g11
tp1453
a(S'September'
p1454
S'NNP'
p1455
S'B-TIMESTART'
p1456
tp1457
a(S'2016'
p1458
S'CD'
p1459
S'I-TIMESTART'
p1460
tp1461
a(S'to'
p1462
S'TO'
p1463
g11
tp1464
a(S'May'
p1465
S'NNP'
p1466
S'B-TIMEEND'
p1467
tp1468
a(S'2018'
p1469
g1459
S'I-TIMEEND'
p1470
tp1471
aa(lp1472
(S'Bachelor'
p1473
S'NNP'
p1474
S'B-DEGREE'
p1475
tp1476
a(S'of'
p1477
S'IN'
p1478
S'I-DEGREE'
p1479
tp1480
a(S'Technology'
p1481
g1474
S'I-DEGREE'
p1482
tp1483
a(S'in'
p1484
S'IN'
p1485
g11
tp1486
a(S'Computer'
p1487
S'NNP'
p1488
S'B-MAJOR'
p1489
tp1490
a(S'Science'
p1491
g1474
S'I-MAJOR'
p1492
tp1493
a(S'and'
p1494
S'CC'
p1495
S'I-MAJOR'
p1496
tp1497
a(S'Engineering'
p1498
g1474
S'I-MAJOR'
p1499
tp1500
a(S'K'
p1501
g1474
S'B-UNIVERSITY'
p1502
tp1503
a(S'L'
p1504
g1474
S'I-UNIVERSITY'
p1505
tp1506
a(S'University'
p1507
S'NNP'
p1508
S'I-UNIVERSITY'
p1509
tp1510
a(S'Vijayawada'
p1511
g1474
g11
tp1512
a(S'Andhra'
p1513
g1474
g11
tp1514
a(S'Pradesh'
p1515
g1474
g11
tp1516
a(S'September'
p1517
S'NNP'
p1518
S'B-TIMESTART'
p1519
tp1520
a(S'2010'
p1521
S'CD'
p1522
S'I-TIMESTART'
p1523
tp1524
a(S'to'
p1525
S'TO'
p1526
g11
tp1527
a(S'May'
p1528
S'NNP'
p1529
S'B-TIMEEND'
p1530
tp1531
a(S'2014'
p1532
g1522
S'I-TIMEEND'
p1533
tp1534
aa(lp1535
(S'PhD'
p1536
S'NNP'
p1537
S'B-DEGREE'
p1538
tp1539
a(S'in'
p1540
S'IN'
p1541
S'O'
p1542
tp1543
a(S'Electrical'
p1544
g1537
S'B-MAJOR'
p1545
tp1546
a(S'Engineering'
p1547
g1537
S'I-MAJOR'
p1548
tp1549
a(S'University'
p1550
S'NNP'
p1551
S'B-UNIVERSITY'
p1552
tp1553
a(S'of'
p1554
S'IN'
p1555
S'I-UNIVERSITY'
p1556
tp1557
a(S'Illinois'
p1558
g1537
S'I-UNIVERSITY'
p1559
tp1560
a(S'At'
p1561
S'IN'
p1562
S'I-UNIVERSITY'
p1563
tp1564
a(S'Urbana'
p1565
g1537
S'I-UNIVERSITY'
p1566
tp1567
a(S'Champaign'
p1568
g1537
S'I-UNIVERSITY'
p1569
tp1570
a(S'Urbana'
p1571
g1537
g1542
tp1572
a(S'Champaign'
p1573
g1537
g1542
tp1574
a(S'IL'
p1575
g1537
g1542
tp1576
a(S'May'
p1577
S'NNP'
p1578
S'B-TIMEEND'
p1579
tp1580
a(S'2006'
p1581
S'CD'
p1582
S'I-TIMEEND'
p1583
tp1584
aa(lp1585
(S'BS'
p1586
S'NNP'
p1587
S'B-DEGREE'
p1588
tp1589
a(S'in'
p1590
S'IN'
p1591
g1542
tp1592
a(S'Electrical'
p1593
g1587
S'B-MAJOR'
p1594
tp1595
a(S'Engineering'
p1596
g1587
S'I-MAJOR'
p1597
tp1598
a(S'Tsinghua'
p1599
g1587
S'B-UNIVERSITY'
p1600
tp1601
a(S'University'
p1602
S'NNP'
p1603
S'I-UNIVERSITY'
p1604
tp1605
a(S'1992'
p1606
S'CD'
p1607
S'B-TIMEEND'
p1608
tp1609
aa(lp1610
(S'BS'
p1611
S'NNP'
p1612
S'B-DEGREE'
p1613
tp1614
a(S'in'
p1615
S'IN'
p1616
g1542
tp1617
a(S'Engineering'
p1618
g1612
S'B-MAJOR'
p1619
tp1620
a(S'Mechanics'
p1621
g1612
S'I-MAJOR'
p1622
tp1623
a(S'Tsinghua'
p1624
g1612
S'B-UNIVERSITY'
p1625
tp1626
a(S'University'
p1627
S'NNP'
p1628
S'I-UNIVERSITY'
p1629
tp1630
a(S'1992'
p1631
S'CD'
p1632
S'B-TIMEEND'
p1633
tp1634
aa(lp1635
(S'PhD'
p1636
S'NNP'
p1637
S'B-DEGREE'
p1638
tp1639
a(S'in'
p1640
S'IN'
p1641
g1542
tp1642
a(S'Engineering'
p1643
g1637
S'B-MAJOR'
p1644
tp1645
a(S'Mechanics'
p1646
g1637
S'I-MAJOR'
p1647
tp1648
a(S'Tsinghua'
p1649
g1637
S'B-UNIVERSITY'
p1650
tp1651
a(S'University'
p1652
S'NNP'
p1653
S'I-UNIVERSITY'
p1654
tp1655
aa(lp1656
(S'Bachelor'
p1657
S'NN'
p1658
S'B-DEGREE'
p1659
tp1660
a(S'of'
p1661
S'IN'
p1662
S'I-DEGREE'
p1663
tp1664
a(S'Science'
p1665
S'NNP'
p1666
S'I-DEGREE'
p1667
tp1668
a(S'in'
p1669
S'IN'
p1670
g1542
tp1671
a(S'Mathematics'
p1672
g1666
S'B-MAJOR'
p1673
tp1674
a(S'in'
p1675
g1670
g1542
tp1676
a(S'Mathematics'
p1677
g1666
S'B-UNIVERSITY'
p1678
tp1679
a(S'UNIVERSITY'
p1680
g1666
S'I-UNIVERSITY'
p1681
tp1682
a(S'OF'
p1683
g1666
S'I-UNIVERSITY'
p1684
tp1685
a(S'MINNESOTA'
p1686
g1666
S'I-UNIVERSITY'
p1687
tp1688
a(S'Minneapolis'
p1689
g1666
g1542
tp1690
a(S'MN'
p1691
g1666
g1542
tp1692
a(S'2002'
p1693
S'CD'
p1694
S'B-TIMEEND'
p1695
tp1696
aa(lp1697
(S'MSc'
p1698
S'NNP'
p1699
S'B-DEGREE'
p1700
tp1701
a(S'in'
p1702
S'IN'
p1703
g1542
tp1704
a(S'Applied'
p1705
g1699
S'B-MAJOR'
p1706
tp1707
a(S'Computer'
p1708
S'NNP'
p1709
S'I-MAJOR'
p1710
tp1711
a(S'Science'
p1712
g1699
S'I-MAJOR'
p1713
tp1714
a(S'University'
p1715
S'NNP'
p1716
S'B-UNIVERSITY'
p1717
tp1718
a(S'of'
p1719
S'IN'
p1720
S'I-UNIVERSITY'
p1721
tp1722
a(S'Ciego'
p1723
g1699
S'I-UNIVERSITY'
p1724
tp1725
a(S'de'
p1726
S'FW'
p1727
S'I-UNIVERSITY'
p1728
tp1729
a(S'Avila'
p1730
g1699
S'I-UNIVERSITY'
p1731
tp1732
a(S'2010'
p1733
S'CD'
p1734
S'B-TIMESTART'
p1735
tp1736
a(S'to'
p1737
S'TO'
p1738
g1542
tp1739
a(S'2012'
p1740
g1734
S'B-TIMEEND'
p1741
tp1742
aa(lp1743
(S'Engineer'
p1744
S'NN'
p1745
S'B-DEGREE'
p1746
tp1747
a(S'in'
p1748
S'IN'
p1749
g1542
tp1750
a(S'Computer'
p1751
S'NNP'
p1752
S'B-UNIVERSITY'
p1753
tp1754
a(S'Science'
p1755
S'NNP'
p1756
S'I-UNIVERSITY'
p1757
tp1758
a(S'University'
p1759
S'NNP'
p1760
S'I-UNIVERSITY'
p1761
tp1762
a(S'of'
p1763
S'IN'
p1764
S'I-UNIVERSITY'
p1765
tp1766
a(S'Ciego'
p1767
g1756
S'I-UNIVERSITY'
p1768
tp1769
a(S'de'
p1770
S'FW'
p1771
S'I-UNIVERSITY'
p1772
tp1773
a(S'Avila'
p1774
g1756
S'I-UNIVERSITY'
p1775
tp1776
a(S'2005'
p1777
S'CD'
p1778
S'B-TIMESTART'
p1779
tp1780
a(S'to'
p1781
S'TO'
p1782
g1542
tp1783
a(S'2010'
p1784
g1778
S'B-TIMEEND'
p1785
tp1786
aa(lp1787
(S'AS'
p1788
S'IN'
p1789
S'B-DEGREE'
p1790
tp1791
a(S'in'
p1792
S'IN'
p1793
g1542
tp1794
a(S'Computer'
p1795
S'NNP'
p1796
S'B-MAJOR'
p1797
tp1798
a(S'Science'
p1799
S'NNP'
p1800
S'I-MAJOR'
p1801
tp1802
a(S'in'
p1803
g1793
g1542
tp1804
a(S'Computer'
p1805
g1796
S'B-UNIVERSITY'
p1806
tp1807
a(S'Science'
p1808
g1800
S'I-UNIVERSITY'
p1809
tp1810
a(S'Foothill'
p1811
g1800
S'I-UNIVERSITY'
p1812
tp1813
a(S'College'
p1814
g1800
S'I-UNIVERSITY'
p1815
tp1816
a(S'Los'
p1817
S'NNP'
p1818
g1542
tp1819
a(S'Altos'
p1820
g1800
g1542
tp1821
a(S'Hills'
p1822
g1800
g1542
tp1823
a(S'CA'
p1824
g1800
g1542
tp1825
aa(lp1826
(S'AA'
p1827
S'NNP'
p1828
S'B-DEGREE'
p1829
tp1830
a(S'in'
p1831
S'IN'
p1832
g1542
tp1833
a(S'Computer'
p1834
S'NNP'
p1835
S'B-MAJOR'
p1836
tp1837
a(S'Science'
p1838
g1828
S'I-MAJOR'
p1839
tp1840
a(S'Brown'
p1841
S'NNP'
p1842
g1542
tp1843
a(S'Mackie'
p1844
g1828
g1542
tp1845
a(S'formally'
p1846
S'RB'
p1847
g1542
tp1848
a(S'Southern'
p1849
g1828
S'B-UNIVERSITY'
p1850
tp1851
a(S'Ohio'
p1852
g1828
S'I-UNIVERSITY'
p1853
tp1854
a(S'College'
p1855
g1828
S'I-UNIVERSITY'
p1856
tp1857
a(S'Fort'
p1858
g1828
g1542
tp1859
a(S'Mitchell'
p1860
S'NNP'
p1861
g1542
tp1862
a(S'KY'
p1863
g1828
g1542
tp1864
aa(lp1865
(S'AA'
p1866
S'NNP'
p1867
S'B-DEGREE'
p1868
tp1869
a(S'in'
p1870
S'IN'
p1871
g1542
tp1872
a(S'Web'
p1873
g1867
S'B-MAJOR'
p1874
tp1875
a(S'Design'
p1876
g1867
S'I-MAJOR'
p1877
tp1878
a(S'and'
p1879
S'CC'
p1880
S'I-MAJOR'
p1881
tp1882
a(S'Multimedia'
p1883
g1867
S'I-MAJOR'
p1884
tp1885
a(S'Art'
p1886
g1867
S'B-UNIVERSITY'
p1887
tp1888
a(S'Institute'
p1889
S'NNP'
p1890
S'I-UNIVERSITY'
p1891
tp1892
a(S'of'
p1893
S'IN'
p1894
S'I-UNIVERSITY'
p1895
tp1896
a(S'Phoenix'
p1897
g1867
S'I-UNIVERSITY'
p1898
tp1899
a(S'Phoenix'
p1900
g1867
g1542
tp1901
a(S'AZ'
p1902
g1867
g1542
tp1903
a(S'2001'
p1904
S'CD'
p1905
S'B-TIMESTART'
p1906
tp1907
a(S'to'
p1908
S'TO'
p1909
g1542
tp1910
a(S'2003'
p1911
g1905
S'B-TIMEEND'
p1912
tp1913
aa(lp1914
(S'A'
p1915
S'DT'
p1916
S'B-DEGREE'
p1917
tp1918
a(S'S'
p1919
S'NNP'
p1920
S'I-DEGREE'
p1921
tp1922
a(S'in'
p1923
S'IN'
p1924
g1542
tp1925
a(S'Computer'
p1926
S'NNP'
p1927
S'B-MAJOR'
p1928
tp1929
a(S'Science'
p1930
g1920
S'I-MAJOR'
p1931
tp1932
a(S'Santa'
p1933
S'NNP'
p1934
S'B-UNIVERSITY'
p1935
tp1936
a(S'Monica'
p1937
g1920
S'I-UNIVERSITY'
p1938
tp1939
a(S'College'
p1940
g1920
S'I-UNIVERSITY'
p1941
tp1942
aa(lp1943
(g1915
S'DT'
p1944
S'B-DEGREE'
p1945
tp1946
a(g1915
S'NNP'
p1947
S'I-DEGREE'
p1948
tp1949
a(g1919
g1947
S'I-DEGREE'
p1950
tp1951
a(S'in'
p1952
S'IN'
p1953
g1542
tp1954
a(S'Design'
p1955
g1947
S'B-MAJOR'
p1956
tp1957
a(S'and'
p1958
S'CC'
p1959
S'I-MAJOR'
p1960
tp1961
a(S'SQL'
p1962
g1947
S'I-MAJOR'
p1963
tp1964
a(S'Lake'
p1965
g1947
S'B-UNIVERSITY'
p1966
tp1967
a(S'Area'
p1968
g1947
S'I-UNIVERSITY'
p1969
tp1970
a(S'Technical'
p1971
g1947
S'I-UNIVERSITY'
p1972
tp1973
a(S'Institute'
p1974
S'NNP'
p1975
S'I-UNIVERSITY'
p1976
tp1977
a(S'Watertown'
p1978
g1947
g1542
tp1979
a(S'SD'
p1980
g1947
g1542
tp1981
a(S'May'
p1982
S'NNP'
p1983
S'B-TIMEEND'
p1984
tp1985
a(S'2011'
p1986
S'CD'
p1987
S'I-TIMEEND'
p1988
tp1989
aa(lp1990
(S'Diploma'
p1991
S'NNP'
p1992
S'B-DEGREE'
p1993
tp1994
a(S'Miami'
p1995
g1992
S'B-UNIVERSITY'
p1996
tp1997
a(S'Dade'
p1998
g1992
S'I-UNIVERSITY'
p1999
tp2000
a(S'College'
p2001
g1992
S'I-UNIVERSITY'
p2002
tp2003
a(S'Miami'
p2004
g1992
g1542
tp2005
a(S'FL'
p2006
g1992
g1542
tp2007
aa(lp2008
(S'Associates'
p2009
S'NNS'
p2010
S'B-DEGREE'
p2011
tp2012
a(S'in'
p2013
S'IN'
p2014
S'I-DEGREE'
p2015
tp2016
a(S'Computer'
p2017
S'NNP'
p2018
S'B-MAJOR'
p2019
tp2020
a(S'Engineering'
p2021
S'NNP'
p2022
S'I-MAJOR'
p2023
tp2024
a(S'Miami'
p2025
g2022
S'B-UNIVERSITY'
p2026
tp2027
a(S'Lakes'
p2028
g2022
S'I-UNIVERSITY'
p2029
tp2030
a(S'Educational'
p2031
g2022
S'I-UNIVERSITY'
p2032
tp2033
a(S'Center'
p2034
S'NNP'
p2035
S'I-UNIVERSITY'
p2036
tp2037
a(S'Miami'
p2038
g2022
g1542
tp2039
a(S'Lakes'
p2040
g2022
g1542
tp2041
a(S'FL'
p2042
g2022
g1542
tp2043
aa(lp2044
(S'Computer'
p2045
S'NNP'
p2046
S'B-DEGREE'
p2047
tp2048
a(S'Repair'
p2049
S'NNP'
p2050
S'I-DEGREE'
p2051
tp2052
a(S'Certificate'
p2053
g2050
S'I-DEGREE'
p2054
tp2055
a(S'in'
p2056
S'IN'
p2057
g1542
tp2058
a(S'Computer'
p2059
g2046
S'B-MAJOR'
p2060
tp2061
a(S'Repair'
p2062
g2050
S'I-MAJOR'
p2063
tp2064
a(S'BOCES'
p2065
g2050
S'B-UNIVERSITY'
p2066
tp2067
a(S'Hempstead'
p2068
g2050
g1542
tp2069
a(S'NY'
p2070
g2050
g1542
tp2071
a(S'January'
p2072
S'NNP'
p2073
S'B-TIMESTART'
p2074
tp2075
a(S'1975'
p2076
S'CD'
p2077
S'I-TIMESTART'
p2078
tp2079
a(S'to'
p2080
S'TO'
p2081
g1542
tp2082
a(S'June'
p2083
S'NNP'
p2084
S'B-TIMEEND'
p2085
tp2086
a(S'1975'
p2087
g2077
S'I-TIMEEND'
p2088
tp2089
aa(lp2090
(S'Associate'
p2091
S'NNP'
p2092
S'B-DEGREE'
p2093
tp2094
a(S'in'
p2095
S'IN'
p2096
g1542
tp2097
a(S'Computer'
p2098
S'NNP'
p2099
S'B-MAJOR'
p2100
tp2101
a(S'Science'
p2102
g2092
S'I-MAJOR'
p2103
tp2104
a(S'Nassau'
p2105
g2092
S'B-UNIVERSITY'
p2106
tp2107
a(S'Community'
p2108
S'NNP'
p2109
S'I-UNIVERSITY'
p2110
tp2111
a(S'College'
p2112
g2092
S'I-UNIVERSITY'
p2113
tp2114
a(S'Garden'
p2115
g2092
g1542
tp2116
a(S'City'
p2117
S'NNP'
p2118
g1542
tp2119
a(S'NY'
p2120
g2092
g1542
tp2121
a(S'June'
p2122
S'NNP'
p2123
S'B-TIMEEND'
p2124
tp2125
a(S'1973'
p2126
S'CD'
p2127
S'I-TIMEEND'
p2128
tp2129
aa(lp2130
(S'B'
p2131
S'NNP'
p2132
S'B-DEGREE'
p2133
tp2134
a(g1919
g2132
S'I-DEGREE'
p2135
tp2136
a(S'in'
p2137
S'IN'
p2138
g1542
tp2139
a(S'Computer'
p2140
S'NNP'
p2141
S'B-MAJOR'
p2142
tp2143
a(S'Engineering'
p2144
g2132
S'I-MAJOR'
p2145
tp2146
a(S'UW'
p2147
g2132
S'B-UNIVERSITY'
p2148
tp2149
a(S'2016'
p2150
S'CD'
p2151
S'B-TIMEEND'
p2152
tp2153
aa(lp2154
(S'Bachelor'
p2155
S'NN'
p2156
S'B-DEGREE'
p2157
tp2158
a(S'of'
p2159
S'IN'
p2160
S'I-DEGREE'
p2161
tp2162
a(S'Science'
p2163
S'NNP'
p2164
S'I-DEGREE'
p2165
tp2166
a(S'in'
p2167
S'IN'
p2168
g1542
tp2169
a(S'Computer'
p2170
S'NNP'
p2171
S'B-MAJOR'
p2172
tp2173
a(S'Science'
p2174
g2164
S'I-MAJOR'
p2175
tp2176
a(S'San'
p2177
S'NNP'
p2178
S'B-UNIVERSITY'
p2179
tp2180
a(S'Jose'
p2181
g2164
S'I-UNIVERSITY'
p2182
tp2183
a(S'State'
p2184
g2164
S'I-UNIVERSITY'
p2185
tp2186
a(S'University'
p2187
S'NNP'
p2188
S'I-UNIVERSITY'
p2189
tp2190
aa(lp2191
(S'Certification'
p2192
S'NN'
p2193
S'B-DEGREE'
p2194
tp2195
a(S'in'
p2196
S'IN'
p2197
g1542
tp2198
a(S'Relational'
p2199
S'NNP'
p2200
S'B-MAJOR'
p2201
tp2202
a(S'Database'
p2203
g2200
S'I-MAJOR'
p2204
tp2205
a(S'Systems'
p2206
S'NNPS'
p2207
S'I-MAJOR'
p2208
tp2209
a(S'and'
p2210
S'CC'
p2211
S'I-MAJOR'
p2212
tp2213
a(S'Design'
p2214
g2200
S'I-MAJOR'
p2215
tp2216
a(S'University'
p2217
S'NNP'
p2218
S'B-UNIVERSITY'
p2219
tp2220
a(S'of'
p2221
S'IN'
p2222
S'I-UNIVERSITY'
p2223
tp2224
a(S'California'
p2225
S'NNP'
p2226
S'I-UNIVERSITY'
p2227
tp2228
a(S'Santa'
p2229
S'NNP'
p2230
S'I-UNIVERSITY'
p2231
tp2232
a(S'Cruz'
p2233
g2200
S'I-UNIVERSITY'
p2234
tp2235
a(S'Extension'
p2236
g2200
S'I-UNIVERSITY'
p2237
tp2238
a(S'Santa'
p2239
g2230
g1542
tp2240
a(S'Cruz'
p2241
g2200
g1542
tp2242
a(S'CA'
p2243
g2200
g1542
tp2244
aa(lp2245
(g2131
S'NNP'
p2246
S'B-DEGREE'
p2247
tp2248
a(g1919
g2246
S'I-DEGREE'
p2249
tp2250
a(S'in'
p2251
S'IN'
p2252
g1542
tp2253
a(S'Software'
p2254
g2246
S'B-MAJOR'
p2255
tp2256
a(S'Engineering'
p2257
g2246
S'I-MAJOR'
p2258
tp2259
a(S'IOWA'
p2260
g2246
S'B-UNIVERSITY'
p2261
tp2262
a(S'STATE'
p2263
g2246
S'I-UNIVERSITY'
p2264
tp2265
a(S'UNIVERSITY'
p2266
g2246
S'I-UNIVERSITY'
p2267
tp2268
a(S'Ames'
p2269
g2246
g1542
tp2270
a(S'IA'
p2271
g2246
g1542
tp2272
a(S'May'
p2273
S'NNP'
p2274
S'B-TIMEEND'
p2275
tp2276
a(S'2016'
p2277
S'CD'
p2278
S'I-TIMEEND'
p2279
tp2280
aa(lp2281
(S'UNIVERSITY'
p2282
S'NN'
p2283
S'B-UNIVERSITY'
p2284
tp2285
a(S'OF'
p2286
S'NNP'
p2287
S'I-UNIVERSITY'
p2288
tp2289
a(S'BIRMINGHAM'
p2290
g2287
S'I-UNIVERSITY'
p2291
tp2292
a(S'Birmingham'
p2293
g2287
g1542
tp2294
a(S'2015'
p2295
S'CD'
p2296
S'B-TIMEEND'
p2297
tp2298
aa(lp2299
(g2131
S'NNP'
p2300
S'B-DEGREE'
p2301
tp2302
a(g1919
g2300
S'I-DEGREE'
p2303
tp2304
a(S'E'
p2305
g2300
S'I-DEGREE'
p2306
tp2307
a(g2305
g2300
S'I-DEGREE'
p2308
tp2309
a(S'in'
p2310
S'IN'
p2311
g1542
tp2312
a(S'Electrical'
p2313
g2300
S'B-MAJOR'
p2314
tp2315
a(S'Engineering'
p2316
g2300
S'I-MAJOR'
p2317
tp2318
a(S'Mankato'
p2319
g2300
S'B-UNIVERSITY'
p2320
tp2321
a(S'State'
p2322
g2300
S'I-UNIVERSITY'
p2323
tp2324
a(S'1988'
p2325
S'CD'
p2326
S'B-TIMEEND'
p2327
tp2328
aa(lp2329
(g2131
S'NNP'
p2330
S'B-DEGREE'
p2331
tp2332
a(g1919
g2330
S'I-DEGREE'
p2333
tp2334
a(S'in'
p2335
S'IN'
p2336
g1542
tp2337
a(S'Business'
p2338
g2330
S'B-MAJOR'
p2339
tp2340
a(S'Mankato'
p2341
g2330
S'B-UNIVERSITY'
p2342
tp2343
a(S'State'
p2344
g2330
S'I-UNIVERSITY'
p2345
tp2346
a(S'University'
p2347
S'NNP'
p2348
S'I-UNIVERSITY'
p2349
tp2350
a(S'1983'
p2351
S'CD'
p2352
S'B-TIMEEND'
p2353
tp2354
aa(lp2355
(S'Computer'
p2356
S'NNP'
p2357
S'B-UNIVERSITY'
p2358
tp2359
a(S'Science'
p2360
S'NNP'
p2361
S'I-UNIVERSITY'
p2362
tp2363
a(S'and'
p2364
S'CC'
p2365
S'I-UNIVERSITY'
p2366
tp2367
a(S'Physics'
p2368
g2361
S'I-UNIVERSITY'
p2369
tp2370
a(S'University'
p2371
S'NNP'
p2372
S'I-UNIVERSITY'
p2373
tp2374
a(S'of'
p2375
S'IN'
p2376
S'I-UNIVERSITY'
p2377
tp2378
a(S'Minnesota'
p2379
g2361
S'I-UNIVERSITY'
p2380
tp2381
a(S'June'
p2382
S'NNP'
p2383
S'B-TIMESTART'
p2384
tp2385
a(S'1978'
p2386
S'CD'
p2387
S'I-TIMESTART'
p2388
tp2389
a(S'to'
p2390
S'TO'
p2391
g1542
tp2392
a(S'July'
p2393
S'NNP'
p2394
S'B-TIMEEND'
p2395
tp2396
a(S'1979'
p2397
g2387
S'I-TIMEEND'
p2398
tp2399
aa(lp2400
(S'Biology'
p2401
S'NNP'
p2402
S'B-MAJOR'
p2403
tp2404
a(S'Mankato'
p2405
g2402
S'B-UNIVERSITY'
p2406
tp2407
a(S'State'
p2408
g2402
S'I-UNIVERSITY'
p2409
tp2410
a(S'University'
p2411
S'NNP'
p2412
S'I-UNIVERSITY'
p2413
tp2414
a(S'September'
p2415
S'NNP'
p2416
S'B-TIMESTART'
p2417
tp2418
a(S'1974'
p2419
S'CD'
p2420
S'I-TIMESTART'
p2421
tp2422
a(S'to'
p2423
S'TO'
p2424
g1542
tp2425
a(S'December'
p2426
S'NNP'
p2427
S'B-TIMEEND'
p2428
tp2429
a(S'1976'
p2430
g2420
S'I-TIMEEND'
p2431
tp2432
aa(lp2433
(g2131
S'NNP'
p2434
S'B-DEGREE'
p2435
tp2436
a(g1919
g2434
S'I-DEGREE'
p2437
tp2438
a(S'in'
p2439
S'IN'
p2440
g1542
tp2441
a(S'Biology'
p2442
g2434
S'B-MAJOR'
p2443
tp2444
a(S'Mankato'
p2445
g2434
S'B-UNIVERSITY'
p2446
tp2447
a(S'State'
p2448
g2434
S'I-UNIVERSITY'
p2449
tp2450
a(S'University'
p2451
S'NNP'
p2452
S'I-UNIVERSITY'
p2453
tp2454
a(S'September'
p2455
S'NNP'
p2456
S'B-TIMESTART'
p2457
tp2458
a(S'1970'
p2459
S'CD'
p2460
S'I-TIMESTART'
p2461
tp2462
a(S'to'
p2463
S'TO'
p2464
g1542
tp2465
a(S'June'
p2466
S'NNP'
p2467
S'B-TIMEEND'
p2468
tp2469
a(S'1974'
p2470
g2460
S'I-TIMEEND'
p2471
tp2472
aa(lp2473
(S'Bachelor'
p2474
S'NN'
p2475
S'B-DEGREE'
p2476
tp2477
a(S'of'
p2478
S'IN'
p2479
S'I-DEGREE'
p2480
tp2481
a(S'Computer'
p2482
S'NNP'
p2483
S'I-DEGREE'
p2484
tp2485
a(S'Science'
p2486
S'NNP'
p2487
S'I-DEGREE'
p2488
tp2489
a(S'Information'
p2490
g2487
S'I-DEGREE'
p2491
tp2492
a(S'Technology'
p2493
g2487
S'I-DEGREE'
p2494
tp2495
a(S'in'
p2496
S'IN'
p2497
g1542
tp2498
a(S'Patan'
p2499
g2487
S'B-SCHOOL'
p2500
tp2501
a(S'Multiple'
p2502
g2487
S'I-SCHOOL'
p2503
tp2504
a(S'Campus'
p2505
g2487
S'I-SCHOOL'
p2506
tp2507
a(S'Tribhuwan'
p2508
g2487
S'B-UNIVERSITY'
p2509
tp2510
a(S'University'
p2511
S'NNP'
p2512
S'I-UNIVERSITY'
p2513
tp2514
a(S'Kathmandu'
p2515
g2487
g1542
tp2516
a(S'NP'
p2517
g2487
g1542
tp2518
a(S'2013'
p2519
S'CD'
p2520
S'B-TIMEEND'
p2521
tp2522
aa(lp2523
(S'BS'
p2524
S'NNP'
p2525
S'B-DEGREE'
p2526
tp2527
a(S'in'
p2528
S'IN'
p2529
g1542
tp2530
a(S'Computer'
p2531
S'NNP'
p2532
S'B-MAJOR'
p2533
tp2534
a(S'Science'
p2535
g2525
S'I-MAJOR'
p2536
tp2537
a(S'Mansfield'
p2538
g2525
S'B-UNIVERSITY'
p2539
tp2540
a(S'Universty'
p2541
g2525
S'I-UNIVERSITY'
p2542
tp2543
a(S'of'
p2544
S'IN'
p2545
g1542
tp2546
a(S'Pennsylvania'
p2547
g2525
g1542
tp2548
a(S'Mansfield'
p2549
g2525
g1542
tp2550
a(S'PA'
p2551
g2525
g1542
tp2552
a(S'2010'
p2553
S'CD'
p2554
S'B-TIMESTART'
p2555
tp2556
a(S'to'
p2557
S'TO'
p2558
g1542
tp2559
a(S'2013'
p2560
g2554
S'B-TIMEEND'
p2561
tp2562
aa.